; Function Attrs: nounwind uwtable
define hidden ptr @SSL_get_cipher_list(ptr noundef readonly captures(address_is_null) %0, i32 noundef %1) local_unnamed_addr #0 {
  %3 = icmp eq ptr %0, null
  br i1 %3, label %SSL_get_ciphers.exit.thread, label %4

4:                                                ; preds = %2
  %5 = getelementptr inbounds nuw i8, ptr %0, i64 120
  %6 = load ptr, ptr %5, align 8, !tbaa !120
  %.not.i = icmp eq ptr %6, null
  br i1 %.not.i, label %7, label %SSL_get_ciphers.exit

7:                                                ; preds = %4
  %8 = load i32, ptr %0, align 8, !tbaa !159
  %9 = icmp sgt i32 %8, 769
  br i1 %9, label %10, label %15

10:                                               ; preds = %7
  %11 = getelementptr inbounds nuw i8, ptr %0, i64 232
  %12 = load ptr, ptr %11, align 8, !tbaa !97
  %13 = getelementptr inbounds nuw i8, ptr %12, i64 96
  %14 = load ptr, ptr %13, align 8, !tbaa !60
  %.not17.i = icmp eq ptr %14, null
  br i1 %.not17.i, label %.thread.i, label %SSL_get_ciphers.exit

15:                                               ; preds = %7
  %16 = icmp eq i32 %8, 769
  %.phi.trans.insert.i = getelementptr inbounds nuw i8, ptr %0, i64 232
  %.pre.i = load ptr, ptr %.phi.trans.insert.i, align 8, !tbaa !97
  br i1 %16, label %.thread.i, label %._crit_edge.i

.thread.i:                                        ; preds = %15, %10
  %17 = phi ptr [ %12, %10 ], [ %.pre.i, %15 ]
  %18 = getelementptr inbounds nuw i8, ptr %17, i64 88
  %19 = load ptr, ptr %18, align 8, !tbaa !59
  %.not18.i = icmp eq ptr %19, null
  br i1 %.not18.i, label %._crit_edge.i, label %SSL_get_ciphers.exit

._crit_edge.i:                                    ; preds = %.thread.i, %15
  %20 = phi ptr [ %17, %.thread.i ], [ %.pre.i, %15 ]
  %21 = getelementptr inbounds nuw i8, ptr %20, i64 72
  %22 = load ptr, ptr %21, align 8, !tbaa !42
  %.not19.i = icmp eq ptr %22, null
  br i1 %.not19.i, label %SSL_get_ciphers.exit.thread, label %SSL_get_ciphers.exit

SSL_get_ciphers.exit:                             ; preds = %4, %10, %.thread.i, %._crit_edge.i
  %.sink.i = phi ptr [ %6, %4 ], [ %14, %10 ], [ %19, %.thread.i ], [ %22, %._crit_edge.i ]
  %23 = load ptr, ptr %.sink.i, align 8, !tbaa !43
  %24 = icmp eq ptr %23, null
  %25 = icmp slt i32 %1, 0
  %or.cond = or i1 %25, %24
  br i1 %or.cond, label %SSL_get_ciphers.exit.thread, label %26

26:                                               ; preds = %SSL_get_ciphers.exit
  %27 = zext nneg i32 %1 to i64
  %28 = tail call i64 @sk_num(ptr noundef nonnull %23) #21
  %.not = icmp ugt i64 %28, %27
  br i1 %.not, label %29, label %SSL_get_ciphers.exit.thread

29:                                               ; preds = %26
  %30 = tail call ptr @sk_value(ptr noundef nonnull %23, i64 noundef %27) #21
  %31 = icmp eq ptr %30, null
  br i1 %31, label %SSL_get_ciphers.exit.thread, label %32

32:                                               ; preds = %29
  %33 = load ptr, ptr %30, align 8, !tbaa !183
  br label %SSL_get_ciphers.exit.thread

SSL_get_ciphers.exit.thread:                      ; preds = %._crit_edge.i, %29, %SSL_get_ciphers.exit, %26, %2, %32
  %.0 = phi ptr [ %33, %32 ], [ null, %2 ], [ null, %26 ], [ null, %SSL_get_ciphers.exit ], [ null, %29 ], [ null, %._crit_edge.i ]
  ret ptr %.0
}